CCS PCM C Compiler, Version 5.015, 5967               07-Haz-18 22:46

               Filename:   D:\Google Drive\Workspace\CCS-C\quiz\q3\Source\main.lst

               ROM used:   116 words (6%)
                           Largest free fragment is 1932
               RAM used:   5 (2%) at main() level
                           6 (3%) worst case
               Stack used: 1 locations
               Stack size: 8

*
0000:  MOVLW  00
0001:  MOVWF  0A
0002:  GOTO   019
0003:  NOP
.................... #include <16f628a.h> 
.................... //////////// Standard Header file for the PIC16F628A device //////////////// 
.................... /////////////////////////////////////////////////////////////////////////// 
.................... ////        (C) Copyright 1996, 2013 Custom Computer Services          //// 
.................... //// This source code may only be used by licensed users of the CCS C  //// 
.................... //// compiler.  This source code may only be distributed to other      //// 
.................... //// licensed users of the CCS C compiler.  No other use, reproduction //// 
.................... //// or distribution is permitted without written permission.          //// 
.................... //// Derivative programs created using this software in object code    //// 
.................... //// form are not restricted in any way.                               //// 
.................... /////////////////////////////////////////////////////////////////////////// 
.................... #device PIC16F628A 
....................  
.................... #list 
....................  
.................... #fuses XT, NOWDT, NOLVP, NOPROTECT 
.................... #use delay(clock = 4M) 
0004:  MOVLW  21
0005:  MOVWF  04
0006:  BCF    03.7
0007:  MOVF   00,W
0008:  BTFSC  03.2
0009:  GOTO   018
000A:  MOVLW  01
000B:  MOVWF  78
000C:  CLRF   77
000D:  DECFSZ 77,F
000E:  GOTO   00D
000F:  DECFSZ 78,F
0010:  GOTO   00C
0011:  MOVLW  4A
0012:  MOVWF  77
0013:  DECFSZ 77,F
0014:  GOTO   013
0015:  GOTO   016
0016:  DECFSZ 00,F
0017:  GOTO   00A
0018:  RETURN
....................  
.................... void main() { 
0019:  MOVF   03,W
001A:  ANDLW  1F
001B:  MOVWF  03
001C:  MOVLW  07
001D:  MOVWF  1F
001E:  BCF    03.7
....................     set_tris_b(0x00); 
001F:  MOVLW  00
0020:  BSF    03.5
0021:  MOVWF  06
....................     while(1) { 
....................         output_b(0b01101111); 
0022:  CLRF   06
0023:  MOVLW  6F
0024:  BCF    03.5
0025:  MOVWF  06
....................         delay_ms(200); 
0026:  MOVLW  C8
0027:  MOVWF  21
0028:  CALL   004
....................         output_b(0b01111111); 
0029:  BSF    03.5
002A:  CLRF   06
002B:  MOVLW  7F
002C:  BCF    03.5
002D:  MOVWF  06
....................         delay_ms(200); 
002E:  MOVLW  C8
002F:  MOVWF  21
0030:  CALL   004
....................         output_b(0b00000111); 
0031:  BSF    03.5
0032:  CLRF   06
0033:  MOVLW  07
0034:  BCF    03.5
0035:  MOVWF  06
....................         delay_ms(200); 
0036:  MOVLW  C8
0037:  MOVWF  21
0038:  CALL   004
....................         output_b(0b01111101); 
0039:  BSF    03.5
003A:  CLRF   06
003B:  MOVLW  7D
003C:  BCF    03.5
003D:  MOVWF  06
....................         delay_ms(200); 
003E:  MOVLW  C8
003F:  MOVWF  21
0040:  CALL   004
....................         output_b(0b01101101); 
0041:  BSF    03.5
0042:  CLRF   06
0043:  MOVLW  6D
0044:  BCF    03.5
0045:  MOVWF  06
....................         delay_ms(200); 
0046:  MOVLW  C8
0047:  MOVWF  21
0048:  CALL   004
....................         output_b(0b01100110); 
0049:  BSF    03.5
004A:  CLRF   06
004B:  MOVLW  66
004C:  BCF    03.5
004D:  MOVWF  06
....................         delay_ms(200); 
004E:  MOVLW  C8
004F:  MOVWF  21
0050:  CALL   004
....................         output_b(0b01001111); 
0051:  BSF    03.5
0052:  CLRF   06
0053:  MOVLW  4F
0054:  BCF    03.5
0055:  MOVWF  06
....................         delay_ms(200); 
0056:  MOVLW  C8
0057:  MOVWF  21
0058:  CALL   004
....................         output_b(0b01011011); 
0059:  BSF    03.5
005A:  CLRF   06
005B:  MOVLW  5B
005C:  BCF    03.5
005D:  MOVWF  06
....................         delay_ms(200); 
005E:  MOVLW  C8
005F:  MOVWF  21
0060:  CALL   004
....................         output_b(0b00000110); 
0061:  BSF    03.5
0062:  CLRF   06
0063:  MOVLW  06
0064:  BCF    03.5
0065:  MOVWF  06
....................         delay_ms(200); 
0066:  MOVLW  C8
0067:  MOVWF  21
0068:  CALL   004
....................         output_b(0b00111111); 
0069:  BSF    03.5
006A:  CLRF   06
006B:  MOVLW  3F
006C:  BCF    03.5
006D:  MOVWF  06
....................         delay_ms(200); 
006E:  MOVLW  C8
006F:  MOVWF  21
0070:  CALL   004
0071:  BSF    03.5
0072:  GOTO   022
....................     } 
.................... } 
0073:  SLEEP

Configuration Fuses:
   Word  1: 3F61   NOWDT PUT XT MCLR BROWNOUT NOLVP NOCPD NOPROTECT
